target datalayout = "e-m:e-p270:32:32-p271:32:32-p272:64:64-i64:64-i128:128-f80:128-n8:16:32:64-S128"
target triple = "x86_64-unknown-linux-gnu"

%"class.icu_75::DictionaryBreakEngine" = type { %"class.icu_75::LanguageBreakEngine", %"class.icu_75::UnicodeSet" }
%"class.icu_75::LanguageBreakEngine" = type { %"class.icu_75::UObject" }
%"class.icu_75::UObject" = type { ptr }
%"class.icu_75::UnicodeSet" = type <{ %"class.icu_75::UnicodeFilter", ptr, i32, i32, i8, [7 x i8], ptr, ptr, i32, [4 x i8], ptr, i32, [4 x i8], ptr, ptr, [25 x i32], [4 x i8] }>
%"class.icu_75::UnicodeFilter" = type { %"class.icu_75::UnicodeFunctor", %"class.icu_75::UnicodeMatcher" }
%"class.icu_75::UnicodeFunctor" = type { %"class.icu_75::UObject" }
%"class.icu_75::UnicodeMatcher" = type { ptr }
%"class.icu_75::UnicodeString" = type { %"class.icu_75::Replaceable", %"union.icu_75::UnicodeString::StackBufferOrFields" }
%"class.icu_75::Replaceable" = type { %"class.icu_75::UObject" }
%"union.icu_75::UnicodeString::StackBufferOrFields" = type { %struct.anon.0, [32 x i8] }
%struct.anon.0 = type { i16, i32, i32, ptr }
%"class.icu_75::CjkBreakEngine" = type { %"class.icu_75::DictionaryBreakEngine", %"class.icu_75::UnicodeSet", %"class.icu_75::UnicodeSet", %"class.icu_75::UnicodeSet", ptr, ptr, ptr, i8, %"class.icu_75::Hashtable" }
%"class.icu_75::Hashtable" = type { ptr, %struct.UHashtable }
%struct.UHashtable = type { ptr, ptr, ptr, ptr, ptr, ptr, i32, i32, i32, i32, float, float, i8, i8 }
%"class.icu_75::ResourceBundle" = type { %"class.icu_75::UObject", ptr, ptr }
%"class.icu_75::Locale" = type <{ %"class.icu_75::UObject", [12 x i8], [6 x i8], [4 x i8], [2 x i8], i32, [4 x i8], ptr, [157 x i8], [3 x i8], ptr, i8, [7 x i8] }>

@.str.12 = private unnamed_addr constant [11 x i8] c"extensions\00", align 1
@.str.13 = private unnamed_addr constant [16 x i8] c"icudt75l-brkitr\00", align 1
@.str.14 = private unnamed_addr constant [3 x i8] c"ja\00", align 1

; Function Attrs: mustprogress uwtable
define linkonce_odr noundef i32 @_ZN6icu_759Hashtable4putiERKNS_13UnicodeStringEiR10UErrorCode(ptr noundef nonnull align 8 dereferenceable(88) %this, ptr noundef nonnull align 8 dereferenceable(64) %key, i32 noundef %value, ptr noundef nonnull align 4 dereferenceable(4) %status) #0 comdat align 2 personality ptr @__gxx_personality_v0 {
entry:
  %this.addr = alloca ptr, align 8
  %key.addr = alloca ptr, align 8
  %value.addr = alloca i32, align 4
  %status.addr = alloca ptr, align 8
  %cleanup.cond = alloca i1, align 1
  %exn.slot = alloca ptr, align 8
  %ehselector.slot = alloca i32, align 4
  store ptr %this, ptr %this.addr, align 8
  store ptr %key, ptr %key.addr, align 8
  store i32 %value, ptr %value.addr, align 4
  store ptr %status, ptr %status.addr, align 8
  %this1 = load ptr, ptr %this.addr, align 8
  %hash = getelementptr inbounds %"class.icu_75::Hashtable", ptr %this1, i32 0, i32 0
  %0 = load ptr, ptr %hash, align 8
  %call = call noundef ptr @_ZN6icu_757UMemorynwEm(i64 noundef 64) #7
  %new.isnull = icmp eq ptr %call, null
  store i1 false, ptr %cleanup.cond, align 1
  br i1 %new.isnull, label %new.cont, label %new.notnull

new.notnull:                                      ; preds = %entry
  store i1 true, ptr %cleanup.cond, align 1
  %1 = load ptr, ptr %key.addr, align 8
  invoke void @_ZN6icu_7513UnicodeStringC1ERKS0_(ptr noundef nonnull align 8 dereferenceable(64) %call, ptr noundef nonnull align 8 dereferenceable(64) %1)
          to label %invoke.cont unwind label %lpad

invoke.cont:                                      ; preds = %new.notnull
  br label %new.cont

new.cont:                                         ; preds = %invoke.cont, %entry
  %2 = phi ptr [ %call, %invoke.cont ], [ null, %entry ]
  %3 = load i32, ptr %value.addr, align 4
  %4 = load ptr, ptr %status.addr, align 8
  %call2 = call i32 @uhash_puti_75(ptr noundef %0, ptr noundef %2, i32 noundef %3, ptr noundef %4)
  ret i32 %call2

lpad:                                             ; preds = %new.notnull
  %5 = landingpad { ptr, i32 }
          cleanup
  %6 = extractvalue { ptr, i32 } %5, 0
  store ptr %6, ptr %exn.slot, align 8
  %7 = extractvalue { ptr, i32 } %5, 1
  store i32 %7, ptr %ehselector.slot, align 4
  %cleanup.is_active = load i1, ptr %cleanup.cond, align 1
  br i1 %cleanup.is_active, label %cleanup.action, label %cleanup.done

cleanup.action:                                   ; preds = %lpad
  call void @_ZN6icu_757UMemorydlEPv(ptr noundef %call) #7
  br label %cleanup.done

cleanup.done:                                     ; preds = %cleanup.action, %lpad
  br label %eh.resume

eh.resume:                                        ; preds = %cleanup.done
  %exn = load ptr, ptr %exn.slot, align 8
  %sel = load i32, ptr %ehselector.slot, align 4
  %lpad.val = insertvalue { ptr, i32 } poison, ptr %exn, 0
  %lpad.val3 = insertvalue { ptr, i32 } %lpad.val, i32 %sel, 1
  resume { ptr, i32 } %lpad.val3
}

; Function Attrs: mustprogress nounwind uwtable
define internal noundef signext i8 @_ZL9U_SUCCESS10UErrorCode(i32 noundef %code) #3 {
entry:
  %code.addr = alloca i32, align 4
  store i32 %code, ptr %code.addr, align 4
  %0 = load i32, ptr %code.addr, align 4
  %cmp = icmp sle i32 %0, 0
  %conv = zext i1 %cmp to i8
  ret i8 %conv
}

; Function Attrs: mustprogress uwtable
define void @_ZN6icu_7514CjkBreakEngine22loadJapaneseExtensionsER10UErrorCode(ptr noundef nonnull align 8 dereferenceable(928) %this, ptr noundef nonnull align 4 dereferenceable(4) %error) #0 align 2 personality ptr @__gxx_personality_v0 {
entry:
  %this.addr = alloca ptr, align 8
  %error.addr = alloca ptr, align 8
  %tag = alloca ptr, align 8
  %ja = alloca %"class.icu_75::ResourceBundle", align 8
  %ref.tmp = alloca %"class.icu_75::Locale", align 8
  %exn.slot = alloca ptr, align 8
  %ehselector.slot = alloca i32, align 4
  %bundle = alloca %"class.icu_75::ResourceBundle", align 8
  %ref.tmp12 = alloca %"class.icu_75::UnicodeString", align 8
  store ptr %this, ptr %this.addr, align 8
  store ptr %error, ptr %error.addr, align 8
  %this1 = load ptr, ptr %this.addr, align 8
  store ptr @.str.12, ptr %tag, align 8
  call void @_ZN6icu_756LocaleC1EPKcS2_S2_S2_(ptr noundef nonnull align 8 dereferenceable(217) %ref.tmp, ptr noundef @.str.14, ptr noundef null, ptr noundef null, ptr noundef null)
  %0 = load ptr, ptr %error.addr, align 8
  invoke void @_ZN6icu_7514ResourceBundleC1EPKcRKNS_6LocaleER10UErrorCode(ptr noundef nonnull align 8 dereferenceable(24) %ja, ptr noundef @.str.13, ptr noundef nonnull align 8 dereferenceable(217) %ref.tmp, ptr noundef nonnull align 4 dereferenceable(4) %0)
          to label %invoke.cont unwind label %lpad

invoke.cont:                                      ; preds = %entry
  call void @_ZN6icu_756LocaleD1Ev(ptr noundef nonnull align 8 dereferenceable(217) %ref.tmp) #7
  %1 = load ptr, ptr %error.addr, align 8
  %2 = load i32, ptr %1, align 4
  %call = invoke noundef signext i8 @_ZL9U_SUCCESS10UErrorCode(i32 noundef %2)
          to label %invoke.cont3 unwind label %lpad2

invoke.cont3:                                     ; preds = %invoke.cont
  %tobool = icmp ne i8 %call, 0
  br i1 %tobool, label %if.then, label %if.end

if.then:                                          ; preds = %invoke.cont3
  %3 = load ptr, ptr %tag, align 8
  %4 = load ptr, ptr %error.addr, align 8
  invoke void @_ZNK6icu_7514ResourceBundle3getEPKcR10UErrorCode(ptr sret(%"class.icu_75::ResourceBundle") align 8 %bundle, ptr noundef nonnull align 8 dereferenceable(24) %ja, ptr noundef %3, ptr noundef nonnull align 4 dereferenceable(4) %4)
          to label %invoke.cont4 unwind label %lpad2

invoke.cont4:                                     ; preds = %if.then
  br label %while.cond

while.cond:                                       ; preds = %invoke.cont15, %invoke.cont4
  %5 = load ptr, ptr %error.addr, align 8
  %6 = load i32, ptr %5, align 4
  %call7 = invoke noundef signext i8 @_ZL9U_SUCCESS10UErrorCode(i32 noundef %6)
          to label %invoke.cont6 unwind label %lpad5

invoke.cont6:                                     ; preds = %while.cond
  %tobool8 = icmp ne i8 %call7, 0
  br i1 %tobool8, label %land.rhs, label %land.end

land.rhs:                                         ; preds = %invoke.cont6
  %call10 = invoke noundef signext i8 @_ZNK6icu_7514ResourceBundle7hasNextEv(ptr noundef nonnull align 8 dereferenceable(24) %bundle)
          to label %invoke.cont9 unwind label %lpad5

invoke.cont9:                                     ; preds = %land.rhs
  %tobool11 = icmp ne i8 %call10, 0
  br label %land.end

land.end:                                         ; preds = %invoke.cont9, %invoke.cont6
  %7 = phi i1 [ false, %invoke.cont6 ], [ %tobool11, %invoke.cont9 ]
  br i1 %7, label %while.body, label %while.end

while.body:                                       ; preds = %land.end
  %fSkipSet = getelementptr inbounds %"class.icu_75::CjkBreakEngine", ptr %this1, i32 0, i32 8
  %8 = load ptr, ptr %error.addr, align 8
  invoke void @_ZN6icu_7514ResourceBundle13getNextStringER10UErrorCode(ptr sret(%"class.icu_75::UnicodeString") align 8 %ref.tmp12, ptr noundef nonnull align 8 dereferenceable(24) %bundle, ptr noundef nonnull align 4 dereferenceable(4) %8)
          to label %invoke.cont13 unwind label %lpad5

invoke.cont13:                                    ; preds = %while.body
  %9 = load ptr, ptr %error.addr, align 8
  %call16 = invoke noundef i32 @_ZN6icu_759Hashtable4putiERKNS_13UnicodeStringEiR10UErrorCode(ptr noundef nonnull align 8 dereferenceable(88) %fSkipSet, ptr noundef nonnull align 8 dereferenceable(64) %ref.tmp12, i32 noundef 1, ptr noundef nonnull align 4 dereferenceable(4) %9)
          to label %invoke.cont15 unwind label %lpad14

invoke.cont15:                                    ; preds = %invoke.cont13
  call void @_ZN6icu_7513UnicodeStringD1Ev(ptr noundef nonnull align 8 dereferenceable(64) %ref.tmp12) #7
  br label %while.cond, !llvm.loop !41

lpad:                                             ; preds = %entry
  %10 = landingpad { ptr, i32 }
          cleanup
  %11 = extractvalue { ptr, i32 } %10, 0
  store ptr %11, ptr %exn.slot, align 8
  %12 = extractvalue { ptr, i32 } %10, 1
  store i32 %12, ptr %ehselector.slot, align 4
  call void @_ZN6icu_756LocaleD1Ev(ptr noundef nonnull align 8 dereferenceable(217) %ref.tmp) #7
  br label %eh.resume

lpad2:                                            ; preds = %if.then, %invoke.cont
  %13 = landingpad { ptr, i32 }
          cleanup
  %14 = extractvalue { ptr, i32 } %13, 0
  store ptr %14, ptr %exn.slot, align 8
  %15 = extractvalue { ptr, i32 } %13, 1
  store i32 %15, ptr %ehselector.slot, align 4
  br label %ehcleanup17

lpad5:                                            ; preds = %while.body, %land.rhs, %while.cond
  %16 = landingpad { ptr, i32 }
          cleanup
  %17 = extractvalue { ptr, i32 } %16, 0
  store ptr %17, ptr %exn.slot, align 8
  %18 = extractvalue { ptr, i32 } %16, 1
  store i32 %18, ptr %ehselector.slot, align 4
  br label %ehcleanup

lpad14:                                           ; preds = %invoke.cont13
  %19 = landingpad { ptr, i32 }
          cleanup
  %20 = extractvalue { ptr, i32 } %19, 0
  store ptr %20, ptr %exn.slot, align 8
  %21 = extractvalue { ptr, i32 } %19, 1
  store i32 %21, ptr %ehselector.slot, align 4
  call void @_ZN6icu_7513UnicodeStringD1Ev(ptr noundef nonnull align 8 dereferenceable(64) %ref.tmp12) #7
  br label %ehcleanup

while.end:                                        ; preds = %land.end
  call void @_ZN6icu_7514ResourceBundleD1Ev(ptr noundef nonnull align 8 dereferenceable(24) %bundle) #7
  br label %if.end

ehcleanup:                                        ; preds = %lpad14, %lpad5
  call void @_ZN6icu_7514ResourceBundleD1Ev(ptr noundef nonnull align 8 dereferenceable(24) %bundle) #7
  br label %ehcleanup17

if.end:                                           ; preds = %while.end, %invoke.cont3
  call void @_ZN6icu_7514ResourceBundleD1Ev(ptr noundef nonnull align 8 dereferenceable(24) %ja) #7
  ret void

ehcleanup17:                                      ; preds = %ehcleanup, %lpad2
  call void @_ZN6icu_7514ResourceBundleD1Ev(ptr noundef nonnull align 8 dereferenceable(24) %ja) #7
  br label %eh.resume

eh.resume:                                        ; preds = %ehcleanup17, %lpad
  %exn = load ptr, ptr %exn.slot, align 8
  %sel = load i32, ptr %ehselector.slot, align 4
  %lpad.val = insertvalue { ptr, i32 } poison, ptr %exn, 0
  %lpad.val18 = insertvalue { ptr, i32 } %lpad.val, i32 %sel, 1
  resume { ptr, i32 } %lpad.val18
}