; Function Attrs: mustprogress uwtable
define void @_ZN6icu_7514CjkBreakEngine22loadJapaneseExtensionsER10UErrorCode(ptr nocapture noundef nonnull readonly align 8 dereferenceable(928) %this, ptr noundef nonnull align 4 dereferenceable(4) %error) local_unnamed_addr #0 align 2 personality ptr @__gxx_personality_v0 {
entry:
  %ja = alloca %"class.icu_75::ResourceBundle", align 8
  %ref.tmp = alloca %"class.icu_75::Locale", align 8
  %bundle = alloca %"class.icu_75::ResourceBundle", align 8
  %ref.tmp12 = alloca %"class.icu_75::UnicodeString", align 8
  call void @_ZN6icu_756LocaleC1EPKcS2_S2_S2_(ptr noundef nonnull align 8 dereferenceable(217) %ref.tmp, ptr noundef nonnull @.str.14, ptr noundef null, ptr noundef null, ptr noundef null)
  invoke void @_ZN6icu_7514ResourceBundleC1EPKcRKNS_6LocaleER10UErrorCode(ptr noundef nonnull align 8 dereferenceable(24) %ja, ptr noundef nonnull @.str.13, ptr noundef nonnull align 8 dereferenceable(217) %ref.tmp, ptr noundef nonnull align 4 dereferenceable(4) %error)
          to label %invoke.cont unwind label %lpad

invoke.cont:                                      ; preds = %entry
  call void @_ZN6icu_756LocaleD1Ev(ptr noundef nonnull align 8 dereferenceable(217) %ref.tmp) #9
  %0 = load i32, ptr %error, align 4
  %cmp.i = icmp sgt i32 %0, 0
  br i1 %cmp.i, label %if.end, label %if.then

if.then:                                          ; preds = %invoke.cont
  invoke void @_ZNK6icu_7514ResourceBundle3getEPKcR10UErrorCode(ptr nonnull sret(%"class.icu_75::ResourceBundle") align 8 %bundle, ptr noundef nonnull align 8 dereferenceable(24) %ja, ptr noundef nonnull @.str.12, ptr noundef nonnull align 4 dereferenceable(4) %error)
          to label %while.cond.preheader unwind label %lpad2

while.cond.preheader:                             ; preds = %if.then
  %1 = load i32, ptr %error, align 4
  %cmp.i913 = icmp sgt i32 %1, 0
  br i1 %cmp.i913, label %while.end, label %land.rhs.lr.ph

land.rhs.lr.ph:                                   ; preds = %while.cond.preheader
  %fSkipSet = getelementptr inbounds i8, ptr %this, i64 840
  br label %land.rhs

land.rhs:                                         ; preds = %land.rhs.lr.ph, %invoke.cont15
  %call10 = invoke noundef signext i8 @_ZNK6icu_7514ResourceBundle7hasNextEv(ptr noundef nonnull align 8 dereferenceable(24) %bundle)
          to label %invoke.cont9 unwind label %lpad5

invoke.cont9:                                     ; preds = %land.rhs
  %tobool11.not = icmp eq i8 %call10, 0
  br i1 %tobool11.not, label %while.end, label %while.body

while.body:                                       ; preds = %invoke.cont9
  invoke void @_ZN6icu_7514ResourceBundle13getNextStringER10UErrorCode(ptr nonnull sret(%"class.icu_75::UnicodeString") align 8 %ref.tmp12, ptr noundef nonnull align 8 dereferenceable(24) %bundle, ptr noundef nonnull align 4 dereferenceable(4) %error)
          to label %invoke.cont13 unwind label %lpad5

invoke.cont13:                                    ; preds = %while.body
  %2 = load ptr, ptr %fSkipSet, align 8
  %call.i = call noundef ptr @_ZN6icu_757UMemorynwEm(i64 noundef 64) #9
  %new.isnull.i = icmp eq ptr %call.i, null
  br i1 %new.isnull.i, label %new.cont.i, label %new.notnull.i

new.notnull.i:                                    ; preds = %invoke.cont13
  invoke void @_ZN6icu_7513UnicodeStringC1ERKS0_(ptr noundef nonnull align 8 dereferenceable(64) %call.i, ptr noundef nonnull align 8 dereferenceable(64) %ref.tmp12)
          to label %new.cont.i unwind label %lpad.i

new.cont.i:                                       ; preds = %new.notnull.i, %invoke.cont13
  %call2.i11 = invoke noundef i32 @uhash_puti_75(ptr noundef %2, ptr noundef %call.i, i32 noundef 1, ptr noundef nonnull %error)
          to label %invoke.cont15 unwind label %lpad14

lpad.i:                                           ; preds = %new.notnull.i
  %3 = landingpad { ptr, i32 }
          cleanup
  call void @_ZN6icu_757UMemorydlEPv(ptr noundef nonnull %call.i) #9
  br label %lpad14.body

invoke.cont15:                                    ; preds = %new.cont.i
  call void @_ZN6icu_7513UnicodeStringD1Ev(ptr noundef nonnull align 8 dereferenceable(64) %ref.tmp12) #9
  %4 = load i32, ptr %error, align 4
  %cmp.i9 = icmp sgt i32 %4, 0
  br i1 %cmp.i9, label %while.end, label %land.rhs, !llvm.loop !40

lpad:                                             ; preds = %entry
  %5 = landingpad { ptr, i32 }
          cleanup
  call void @_ZN6icu_756LocaleD1Ev(ptr noundef nonnull align 8 dereferenceable(217) %ref.tmp) #9
  br label %eh.resume

lpad2:                                            ; preds = %if.then
  %6 = landingpad { ptr, i32 }
          cleanup
  br label %ehcleanup17

lpad5:                                            ; preds = %while.body, %land.rhs
  %7 = landingpad { ptr, i32 }
          cleanup
  br label %ehcleanup

lpad14:                                           ; preds = %new.cont.i
  %8 = landingpad { ptr, i32 }
          cleanup
  br label %lpad14.body

lpad14.body:                                      ; preds = %lpad.i, %lpad14
  %eh.lpad-body = phi { ptr, i32 } [ %8, %lpad14 ], [ %3, %lpad.i ]
  call void @_ZN6icu_7513UnicodeStringD1Ev(ptr noundef nonnull align 8 dereferenceable(64) %ref.tmp12) #9
  br label %ehcleanup

while.end:                                        ; preds = %invoke.cont9, %invoke.cont15, %while.cond.preheader
  call void @_ZN6icu_7514ResourceBundleD1Ev(ptr noundef nonnull align 8 dereferenceable(24) %bundle) #9
  br label %if.end

ehcleanup:                                        ; preds = %lpad14.body, %lpad5
  %.pn = phi { ptr, i32 } [ %eh.lpad-body, %lpad14.body ], [ %7, %lpad5 ]
  call void @_ZN6icu_7514ResourceBundleD1Ev(ptr noundef nonnull align 8 dereferenceable(24) %bundle) #9
  br label %ehcleanup17

if.end:                                           ; preds = %while.end, %invoke.cont
  call void @_ZN6icu_7514ResourceBundleD1Ev(ptr noundef nonnull align 8 dereferenceable(24) %ja) #9
  ret void

ehcleanup17:                                      ; preds = %ehcleanup, %lpad2
  %.pn.pn = phi { ptr, i32 } [ %.pn, %ehcleanup ], [ %6, %lpad2 ]
  call void @_ZN6icu_7514ResourceBundleD1Ev(ptr noundef nonnull align 8 dereferenceable(24) %ja) #9
  br label %eh.resume

eh.resume:                                        ; preds = %ehcleanup17, %lpad
  %.pn.pn.pn = phi { ptr, i32 } [ %.pn.pn, %ehcleanup17 ], [ %5, %lpad ]
  resume { ptr, i32 } %.pn.pn.pn
}